target datalayout = "e-m:e-p270:32:32-p271:32:32-p272:64:64-i64:64-i128:128-f80:128-n8:16:32:64-S128"
target triple = "x86_64-pc-linux-gnu"

%class.rational = type { %class.mpq }
%class.mpq = type { %class.mpz, %class.mpz }
%class.mpz = type { i32, i8, ptr }
%"struct.dep_intervals::im_config::interval" = type { %class.mpq, %class.mpq, i8, ptr, ptr }
%class.params_ref = type { ptr }
%class.ref_manager_wrapper = type { ptr }
%class.bound_simplifier = type <{ %class.dependent_expr_simplifier, %class.arith_util, %class.params_ref, %class.th_rewriter, %class.mpq_manager, %class.small_object_allocator, %class.bound_propagator, %class.scoped_dependency_manager, %class.dep_intervals, %class.ptr_vector.16, %class.svector.2, %class.ref_vector, %class.numeral_buffer.18, %class.svector.2, i32, [4 x i8] }>
%class.dependent_expr_simplifier = type { ptr, ptr, ptr, ptr }
%class.arith_util = type { ptr, ptr }
%class.th_rewriter = type { ptr, %class.params_ref }
%class.mpq_manager = type { %class.mpz_manager, %class.mpz, %class.mpz, %class.mpz, %class.mpz, %class.mpq, %class.mpq }
%class.mpz_manager = type { %class.small_object_allocator, %"class.std::recursive_mutex", [4 x i8], i32, %class.mpz, %class.mpz }
%"class.std::recursive_mutex" = type { %"class.std::__recursive_mutex_base" }
%"class.std::__recursive_mutex_base" = type { %union.pthread_mutex_t }
%union.pthread_mutex_t = type { %struct.__pthread_mutex_s }
%struct.__pthread_mutex_s = type { i32, i32, i32, i32, i32, i16, i16, %struct.__pthread_internal_list }
%struct.__pthread_internal_list = type { ptr, ptr }
%class.small_object_allocator = type { [32 x ptr], [32 x ptr], i64 }
%class.bound_propagator = type { ptr, ptr, %class.linear_equation_manager, %class.svector.4, %class.svector.0, %class.svector.0, %class.ptr_vector, %class.ptr_vector, %class.vector.7, %class.svector.8, i32, %class.svector.2, %class.svector.2, %class.svector.2, i32, i32, %class.mpq, %class.svector.10, %class.svector.2, i32, double, double, double, i32, i32, i32, %class.svector.12 }
%class.linear_equation_manager = type { ptr, ptr, %class.numeral_buffer, %class.numeral_buffer, %class.svector.0, %class.svector.2 }
%class.numeral_buffer = type { ptr, %class.svector }
%class.svector = type { %class.vector }
%class.vector = type { ptr }
%class.svector.4 = type { %class.vector.5 }
%class.vector.5 = type { ptr }
%class.svector.0 = type { %class.vector.1 }
%class.vector.1 = type { ptr }
%class.ptr_vector = type { %class.vector.6 }
%class.vector.6 = type { ptr }
%class.vector.7 = type { ptr }
%class.svector.8 = type { %class.vector.9 }
%class.vector.9 = type { ptr }
%class.svector.10 = type { %class.vector.11 }
%class.vector.11 = type { ptr }
%class.svector.12 = type { %class.vector.13 }
%class.vector.13 = type { ptr }
%class.scoped_dependency_manager = type { [8 x i8], %"class.scoped_dependency_manager<unsigned int>::config::allocator", %class.dependency_manager }
%"class.scoped_dependency_manager<unsigned int>::config::allocator" = type { %class.region }
%class.region = type { ptr, ptr, ptr, ptr, ptr }
%class.dependency_manager = type { ptr, ptr, %class.ptr_vector.14 }
%class.ptr_vector.14 = type { %class.vector.15 }
%class.vector.15 = type { ptr }
%class.dep_intervals = type { ptr, %class.mpq_manager, %"class.dep_intervals::im_config", %class.interval_manager }
%"class.dep_intervals::im_config" = type { ptr, ptr }
%class.interval_manager = type { ptr, %"class.dep_intervals::im_config", %class.mpq, %class.mpq, %class.mpq, %class.mpq, %class.mpq, %class.mpq, %class.mpq, %class.mpq, %class.mpq, i32, %"struct.dep_intervals::im_config::interval", %"struct.dep_intervals::im_config::interval", %"struct.dep_intervals::im_config::interval", %"struct.dep_intervals::im_config::interval" }
%class.ptr_vector.16 = type { %class.vector.17 }
%class.vector.17 = type { ptr }
%class.ref_vector = type { %class.ref_vector_core }
%class.ref_vector_core = type { %class.ref_manager_wrapper, %class.ptr_vector.16 }
%class.numeral_buffer.18 = type { ptr, %class.svector.19 }
%class.svector.19 = type { %class.vector.20 }
%class.vector.20 = type { ptr }
%class.svector.2 = type { %class.vector.3 }
%class.vector.3 = type { ptr }
%class._scoped_numeral = type { ptr, %class.mpq }

; Function Attrs: inlinehint mustprogress nounwind uwtable
define linkonce_odr hidden noundef zeroext i1 @_ZNK3mpz8is_smallEv(ptr noundef nonnull align 8 dereferenceable(16) %0) #8 comdat align 2 {
  %2 = alloca ptr, align 8
  store ptr %0, ptr %2, align 8, !tbaa !299
  %3 = load ptr, ptr %2, align 8
  %4 = getelementptr inbounds nuw %class.mpz, ptr %3, i32 0, i32 1
  %5 = load i8, ptr %4, align 4
  %6 = and i8 %5, 1
  %7 = zext i8 %6 to i32
  %8 = icmp eq i32 %7, 0
  ret i1 %8
}

; Function Attrs: mustprogress nounwind uwtable
define linkonce_odr hidden void @_ZN3mpz3setEi(ptr noundef nonnull align 8 dereferenceable(16) %0, i32 noundef %1) #6 comdat align 2 {
  %3 = alloca ptr, align 8
  %4 = alloca i32, align 4
  store ptr %0, ptr %3, align 8, !tbaa !299
  store i32 %1, ptr %4, align 4, !tbaa !10
  %5 = load ptr, ptr %3, align 8
  %6 = load i32, ptr %4, align 4, !tbaa !10
  %7 = getelementptr inbounds nuw %class.mpz, ptr %5, i32 0, i32 0
  store i32 %6, ptr %7, align 8, !tbaa !300
  %8 = getelementptr inbounds nuw %class.mpz, ptr %5, i32 0, i32 1
  %9 = load i8, ptr %8, align 4
  %10 = and i8 %9, -2
  %11 = or i8 %10, 0
  store i8 %11, ptr %8, align 4
  ret void
}

; Function Attrs: inlinehint mustprogress nounwind uwtable
define linkonce_odr hidden noundef i32 @_ZNK3mpz5valueEv(ptr noundef nonnull align 8 dereferenceable(16) %0) #8 comdat align 2 {
  %2 = alloca ptr, align 8
  store ptr %0, ptr %2, align 8, !tbaa !299
  %3 = load ptr, ptr %2, align 8
  %4 = getelementptr inbounds nuw %class.mpz, ptr %3, i32 0, i32 0
  %5 = load i32, ptr %4, align 8, !tbaa !300
  ret i32 %5
}

; Function Attrs: mustprogress nounwind uwtable
define linkonce_odr hidden noundef zeroext i1 @_ZN11mpz_managerILb0EE8is_smallERK3mpz(ptr noundef nonnull align 8 dereferenceable(16) %0) #6 comdat align 2 {
  %2 = alloca ptr, align 8
  store ptr %0, ptr %2, align 8, !tbaa !299
  %3 = load ptr, ptr %2, align 8, !tbaa !299
  %4 = call noundef zeroext i1 @_ZNK3mpz8is_smallEv(ptr noundef nonnull align 8 dereferenceable(16) %3)
  ret i1 %4
}

; Function Attrs: mustprogress uwtable
define linkonce_odr hidden void @_ZN11mpz_managerILb0EE3setER3mpzRKS1_(ptr noundef nonnull align 8 dereferenceable(600) %0, ptr noundef nonnull align 8 dereferenceable(16) %1, ptr noundef nonnull align 8 dereferenceable(16) %2) #4 comdat align 2 {
  %4 = alloca ptr, align 8
  %5 = alloca ptr, align 8
  %6 = alloca ptr, align 8
  store ptr %0, ptr %4, align 8, !tbaa !441
  store ptr %1, ptr %5, align 8, !tbaa !299
  store ptr %2, ptr %6, align 8, !tbaa !299
  %7 = load ptr, ptr %4, align 8
  %8 = load ptr, ptr %6, align 8, !tbaa !299
  %9 = call noundef zeroext i1 @_ZN11mpz_managerILb0EE8is_smallERK3mpz(ptr noundef nonnull align 8 dereferenceable(16) %8)
  br i1 %9, label %10, label %14

10:                                               ; preds = %3
  %11 = load ptr, ptr %5, align 8, !tbaa !299
  %12 = load ptr, ptr %6, align 8, !tbaa !299
  %13 = call noundef i32 @_ZNK3mpz5valueEv(ptr noundef nonnull align 8 dereferenceable(16) %12)
  call void @_ZN3mpz3setEi(ptr noundef nonnull align 8 dereferenceable(16) %11, i32 noundef %13)
  br label %17

14:                                               ; preds = %3
  %15 = load ptr, ptr %5, align 8, !tbaa !299
  %16 = load ptr, ptr %6, align 8, !tbaa !299
  call void @_ZN11mpz_managerILb0EE7big_setER3mpzRKS1_(ptr noundef nonnull align 8 dereferenceable(600) %7, ptr noundef nonnull align 8 dereferenceable(16) %15, ptr noundef nonnull align 8 dereferenceable(16) %16)
  br label %17

17:                                               ; preds = %14, %10
  ret void
}

; Function Attrs: mustprogress nounwind uwtable
define linkonce_odr hidden void @_ZN3mpzC2Ei(ptr noundef nonnull align 8 dereferenceable(16) %0, i32 noundef %1) unnamed_addr #6 comdat align 2 {
  %3 = alloca ptr, align 8
  %4 = alloca i32, align 4
  store ptr %0, ptr %3, align 8, !tbaa !299
  store i32 %1, ptr %4, align 4, !tbaa !10
  %5 = load ptr, ptr %3, align 8
  %6 = getelementptr inbounds nuw %class.mpz, ptr %5, i32 0, i32 0
  %7 = load i32, ptr %4, align 4, !tbaa !10
  store i32 %7, ptr %6, align 8, !tbaa !300
  %8 = getelementptr inbounds nuw %class.mpz, ptr %5, i32 0, i32 1
  %9 = load i8, ptr %8, align 4
  %10 = and i8 %9, -2
  %11 = or i8 %10, 0
  store i8 %11, ptr %8, align 4
  %12 = getelementptr inbounds nuw %class.mpz, ptr %5, i32 0, i32 1
  %13 = load i8, ptr %12, align 4
  %14 = and i8 %13, -3
  %15 = or i8 %14, 0
  store i8 %15, ptr %12, align 4
  %16 = getelementptr inbounds nuw %class.mpz, ptr %5, i32 0, i32 2
  store ptr null, ptr %16, align 8, !tbaa !301
  ret void
}

; Function Attrs: mustprogress nounwind uwtable
define linkonce_odr hidden void @_ZN3mpzC2Ev(ptr noundef nonnull align 8 dereferenceable(16) %0) unnamed_addr #6 comdat align 2 {
  %2 = alloca ptr, align 8
  store ptr %0, ptr %2, align 8, !tbaa !299
  %3 = load ptr, ptr %2, align 8
  %4 = getelementptr inbounds nuw %class.mpz, ptr %3, i32 0, i32 0
  store i32 0, ptr %4, align 8, !tbaa !300
  %5 = getelementptr inbounds nuw %class.mpz, ptr %3, i32 0, i32 1
  %6 = load i8, ptr %5, align 4
  %7 = and i8 %6, -2
  %8 = or i8 %7, 0
  store i8 %8, ptr %5, align 4
  %9 = getelementptr inbounds nuw %class.mpz, ptr %3, i32 0, i32 1
  %10 = load i8, ptr %9, align 4
  %11 = and i8 %10, -3
  %12 = or i8 %11, 0
  store i8 %12, ptr %9, align 4
  %13 = getelementptr inbounds nuw %class.mpz, ptr %3, i32 0, i32 2
  store ptr null, ptr %13, align 8, !tbaa !301
  ret void
}

; Function Attrs: mustprogress uwtable
define linkonce_odr hidden void @_ZN11mpq_managerILb0EE3setER3mpzRKS1_(ptr noundef nonnull align 8 dereferenceable(728) %0, ptr noundef nonnull align 8 dereferenceable(16) %1, ptr noundef nonnull align 8 dereferenceable(16) %2) #4 comdat align 2 {
  %4 = alloca ptr, align 8
  %5 = alloca ptr, align 8
  %6 = alloca ptr, align 8
  store ptr %0, ptr %4, align 8, !tbaa !265
  store ptr %1, ptr %5, align 8, !tbaa !299
  store ptr %2, ptr %6, align 8, !tbaa !299
  %7 = load ptr, ptr %4, align 8
  %8 = load ptr, ptr %5, align 8, !tbaa !299
  %9 = load ptr, ptr %6, align 8, !tbaa !299
  call void @_ZN11mpz_managerILb0EE3setER3mpzRKS1_(ptr noundef nonnull align 8 dereferenceable(600) %7, ptr noundef nonnull align 8 dereferenceable(16) %8, ptr noundef nonnull align 8 dereferenceable(16) %9)
  ret void
}

; Function Attrs: mustprogress uwtable
define linkonce_odr hidden void @_ZN3mpqC2Ev(ptr noundef nonnull align 8 dereferenceable(32) %0) unnamed_addr #4 comdat align 2 {
  %2 = alloca ptr, align 8
  store ptr %0, ptr %2, align 8, !tbaa !46
  %3 = load ptr, ptr %2, align 8
  %4 = getelementptr inbounds nuw %class.mpq, ptr %3, i32 0, i32 0
  call void @_ZN3mpzC2Ev(ptr noundef nonnull align 8 dereferenceable(16) %4)
  %5 = getelementptr inbounds nuw %class.mpq, ptr %3, i32 0, i32 1
  call void @_ZN3mpzC2Ei(ptr noundef nonnull align 8 dereferenceable(16) %5, i32 noundef 1)
  ret void
}

; Function Attrs: mustprogress uwtable
define linkonce_odr hidden void @_ZN16bound_propagator12assert_upperEjRK3mpqbj(ptr noundef nonnull align 8 dereferenceable(280) %0, i32 noundef %1, ptr noundef nonnull align 8 dereferenceable(32) %2, i1 noundef zeroext %3, i32 noundef %4) #4 comdat align 2 {
  %6 = alloca ptr, align 8
  %7 = alloca i32, align 4
  %8 = alloca ptr, align 8
  %9 = alloca i8, align 1
  %10 = alloca i32, align 4
  store ptr %0, ptr %6, align 8, !tbaa !268
  store i32 %1, ptr %7, align 4, !tbaa !10
  store ptr %2, ptr %8, align 8, !tbaa !46
  %11 = zext i1 %3 to i8
  store i8 %11, ptr %9, align 1, !tbaa !28
  store i32 %4, ptr %10, align 4, !tbaa !10
  %12 = load ptr, ptr %6, align 8
  %13 = getelementptr inbounds nuw %class.bound_propagator, ptr %12, i32 0, i32 0
  %14 = load ptr, ptr %13, align 8, !tbaa !270
  %15 = getelementptr inbounds nuw %class.bound_propagator, ptr %12, i32 0, i32 16
  %16 = load ptr, ptr %8, align 8, !tbaa !46
  call void @_ZN11mpq_managerILb0EE3setER3mpqRKS1_(ptr noundef nonnull align 8 dereferenceable(728) %14, ptr noundef nonnull align 8 dereferenceable(32) %15, ptr noundef nonnull align 8 dereferenceable(32) %16)
  %17 = load i32, ptr %7, align 4, !tbaa !10
  %18 = getelementptr inbounds nuw %class.bound_propagator, ptr %12, i32 0, i32 16
  %19 = load i8, ptr %9, align 1, !tbaa !28, !range !30, !noundef !31
  %20 = trunc i8 %19 to i1
  %21 = load i32, ptr %10, align 4, !tbaa !10
  %22 = icmp eq i32 %21, -1
  %23 = select i1 %22, i32 0, i32 1
  %24 = load i32, ptr %10, align 4, !tbaa !10
  %25 = call noundef zeroext i1 @_ZN16bound_propagator17assert_upper_coreEjR3mpqbNS_5bkindEjj(ptr noundef nonnull align 8 dereferenceable(280) %12, i32 noundef %17, ptr noundef nonnull align 8 dereferenceable(32) %18, i1 noundef zeroext %20, i32 noundef %23, i32 noundef 0, i32 noundef %24)
  ret void
}

; Function Attrs: mustprogress uwtable
define linkonce_odr hidden void @_ZN11mpq_managerILb0EE3setER3mpqRKS1_(ptr noundef nonnull align 8 dereferenceable(728) %0, ptr noundef nonnull align 8 dereferenceable(32) %1, ptr noundef nonnull align 8 dereferenceable(32) %2) #4 comdat align 2 {
  %4 = alloca ptr, align 8
  %5 = alloca ptr, align 8
  %6 = alloca ptr, align 8
  store ptr %0, ptr %4, align 8, !tbaa !265
  store ptr %1, ptr %5, align 8, !tbaa !46
  store ptr %2, ptr %6, align 8, !tbaa !46
  %7 = load ptr, ptr %4, align 8
  %8 = load ptr, ptr %5, align 8, !tbaa !46
  %9 = getelementptr inbounds nuw %class.mpq, ptr %8, i32 0, i32 0
  %10 = load ptr, ptr %6, align 8, !tbaa !46
  %11 = getelementptr inbounds nuw %class.mpq, ptr %10, i32 0, i32 0
  call void @_ZN11mpq_managerILb0EE3setER3mpzRKS1_(ptr noundef nonnull align 8 dereferenceable(728) %7, ptr noundef nonnull align 8 dereferenceable(16) %9, ptr noundef nonnull align 8 dereferenceable(16) %11)
  %12 = load ptr, ptr %5, align 8, !tbaa !46
  %13 = getelementptr inbounds nuw %class.mpq, ptr %12, i32 0, i32 1
  %14 = load ptr, ptr %6, align 8, !tbaa !46
  %15 = getelementptr inbounds nuw %class.mpq, ptr %14, i32 0, i32 1
  call void @_ZN11mpq_managerILb0EE3setER3mpzRKS1_(ptr noundef nonnull align 8 dereferenceable(728) %7, ptr noundef nonnull align 8 dereferenceable(16) %13, ptr noundef nonnull align 8 dereferenceable(16) %15)
  ret void
}

; Function Attrs: mustprogress nounwind uwtable
define linkonce_odr hidden noundef nonnull align 8 dereferenceable(32) ptr @_ZNK8rational6to_mpqEv(ptr noundef nonnull align 8 dereferenceable(32) %0) #6 comdat align 2 {
  %2 = alloca ptr, align 8
  store ptr %0, ptr %2, align 8, !tbaa !34
  %3 = load ptr, ptr %2, align 8
  %4 = getelementptr inbounds nuw %class.rational, ptr %3, i32 0, i32 0
  ret ptr %4
}

; Function Attrs: mustprogress nounwind uwtable
define linkonce_odr hidden noundef nonnull align 8 dereferenceable(32) ptr @_ZN15_scoped_numeralI11mpq_managerILb0EEEcvR3mpqEv(ptr noundef nonnull align 8 dereferenceable(40) %0) #6 comdat align 2 {
  %2 = alloca ptr, align 8
  store ptr %0, ptr %2, align 8, !tbaa !263
  %3 = load ptr, ptr %2, align 8
  %4 = getelementptr inbounds nuw %class._scoped_numeral, ptr %3, i32 0, i32 1
  ret ptr %4
}

; Function Attrs: mustprogress uwtable
define linkonce_odr hidden void @_ZN15_scoped_numeralI11mpq_managerILb0EEEC2ERS1_(ptr noundef nonnull align 8 dereferenceable(40) %0, ptr noundef nonnull align 8 dereferenceable(728) %1) unnamed_addr #4 comdat align 2 {
  %3 = alloca ptr, align 8
  %4 = alloca ptr, align 8
  store ptr %0, ptr %3, align 8, !tbaa !263
  store ptr %1, ptr %4, align 8, !tbaa !265
  %5 = load ptr, ptr %3, align 8
  %6 = getelementptr inbounds nuw %class._scoped_numeral, ptr %5, i32 0, i32 0
  %7 = load ptr, ptr %4, align 8, !tbaa !265
  store ptr %7, ptr %6, align 8, !tbaa !265
  %8 = getelementptr inbounds nuw %class._scoped_numeral, ptr %5, i32 0, i32 1
  call void @_ZN3mpqC2Ev(ptr noundef nonnull align 8 dereferenceable(32) %8)
  ret void
}

; Function Attrs: mustprogress uwtable
define hidden void @_ZN16bound_simplifier12assert_upperEP4exprRK8rationalb(ptr noundef nonnull align 8 dereferenceable(3156) %0, ptr noundef %1, ptr noundef nonnull align 8 dereferenceable(32) %2, i1 noundef zeroext %3) #4 align 2 personality ptr @__gxx_personality_v0 {
  %5 = alloca ptr, align 8
  %6 = alloca ptr, align 8
  %7 = alloca ptr, align 8
  %8 = alloca i8, align 1
  %9 = alloca %class._scoped_numeral, align 8
  %10 = alloca ptr, align 8
  %11 = alloca i32, align 4
  store ptr %0, ptr %5, align 8, !tbaa !3
  store ptr %1, ptr %6, align 8, !tbaa !19
  store ptr %2, ptr %7, align 8, !tbaa !34
  %12 = zext i1 %3 to i8
  store i8 %12, ptr %8, align 1, !tbaa !28
  %13 = load ptr, ptr %5, align 8
  call void @llvm.lifetime.start.p0(i64 40, ptr %9) #3
  %14 = getelementptr inbounds nuw %class.bound_simplifier, ptr %13, i32 0, i32 4
  call void @_ZN15_scoped_numeralI11mpq_managerILb0EEEC2ERS1_(ptr noundef nonnull align 8 dereferenceable(40) %9, ptr noundef nonnull align 8 dereferenceable(728) %14)
  %15 = getelementptr inbounds nuw %class.bound_simplifier, ptr %13, i32 0, i32 4
  %16 = invoke noundef nonnull align 8 dereferenceable(32) ptr @_ZN15_scoped_numeralI11mpq_managerILb0EEEcvR3mpqEv(ptr noundef nonnull align 8 dereferenceable(40) %9)
          to label %17 unwind label %31

17:                                               ; preds = %4
  %18 = load ptr, ptr %7, align 8, !tbaa !34
  %19 = invoke noundef nonnull align 8 dereferenceable(32) ptr @_ZNK8rational6to_mpqEv(ptr noundef nonnull align 8 dereferenceable(32) %18)
          to label %20 unwind label %31

20:                                               ; preds = %17
  invoke void @_ZN11mpq_managerILb0EE3setER3mpqRKS1_(ptr noundef nonnull align 8 dereferenceable(728) %15, ptr noundef nonnull align 8 dereferenceable(32) %16, ptr noundef nonnull align 8 dereferenceable(32) %19)
          to label %21 unwind label %31

21:                                               ; preds = %20
  %22 = getelementptr inbounds nuw %class.bound_simplifier, ptr %13, i32 0, i32 6
  %23 = load ptr, ptr %6, align 8, !tbaa !19
  %24 = invoke noundef i32 @_ZN16bound_simplifier6to_varEP4expr(ptr noundef nonnull align 8 dereferenceable(3156) %13, ptr noundef %23)
          to label %25 unwind label %31

25:                                               ; preds = %21
  %26 = invoke noundef nonnull align 8 dereferenceable(32) ptr @_ZN15_scoped_numeralI11mpq_managerILb0EEEcvR3mpqEv(ptr noundef nonnull align 8 dereferenceable(40) %9)
          to label %27 unwind label %31

27:                                               ; preds = %25
  %28 = load i8, ptr %8, align 1, !tbaa !28, !range !30, !noundef !31
  %29 = trunc i8 %28 to i1
  invoke void @_ZN16bound_propagator12assert_upperEjRK3mpqbj(ptr noundef nonnull align 8 dereferenceable(280) %22, i32 noundef %24, ptr noundef nonnull align 8 dereferenceable(32) %26, i1 noundef zeroext %29, i32 noundef -1)
          to label %30 unwind label %31

30:                                               ; preds = %27
  call void @_ZN15_scoped_numeralI11mpq_managerILb0EEED2Ev(ptr noundef nonnull align 8 dereferenceable(40) %9) #3
  call void @llvm.lifetime.end.p0(i64 40, ptr %9) #3
  ret void

31:                                               ; preds = %27, %25, %21, %20, %17, %4
  %32 = landingpad { ptr, i32 }
          cleanup
  %33 = extractvalue { ptr, i32 } %32, 0
  store ptr %33, ptr %10, align 8
  %34 = extractvalue { ptr, i32 } %32, 1
  store i32 %34, ptr %11, align 4
  call void @_ZN15_scoped_numeralI11mpq_managerILb0EEED2Ev(ptr noundef nonnull align 8 dereferenceable(40) %9) #3
  call void @llvm.lifetime.end.p0(i64 40, ptr %9) #3
  br label %35

35:                                               ; preds = %31
  %36 = load ptr, ptr %10, align 8
  %37 = load i32, ptr %11, align 4
  %38 = insertvalue { ptr, i32 } poison, ptr %36, 0
  %39 = insertvalue { ptr, i32 } %38, i32 %37, 1
  resume { ptr, i32 } %39
}